target datalayout = "e-m:e-p270:32:32-p271:32:32-p272:64:64-i64:64-i128:128-f80:128-n8:16:32:64-S128"
target triple = "x86_64-pc-linux-gnu"

%struct.resource_allocation_response_msg = type { ptr, i32, ptr, i32, i32, i32, ptr, ptr, i32, ptr, i32, i32, ptr, ptr, i32, ptr, i16, i16, i16, i16, i32, ptr, i64, ptr, ptr, ptr, ptr, i32, ptr, ptr }

@destroy_job = internal global i32 0, align 4
@pending_job_id = internal global i32 0, align 4
@.str.1 = private unnamed_addr constant [35 x i8] c"Job allocation %u has been revoked\00", align 1
@revoke_job = internal global i8 0, align 1
@.str.29 = private unnamed_addr constant [35 x i8] c"Waiting for resource configuration\00", align 1
@.str.30 = private unnamed_addr constant [55 x i8] c"Waited %f sec and still waiting: next sleep for %f sec\00", align 1
@.str.31 = private unnamed_addr constant [27 x i8] c"Nodes %s are ready for job\00", align 1
@.str.32 = private unnamed_addr constant [29 x i8] c"Nodes %s are still not ready\00", align 1

; Function Attrs: nounwind uwtable
define internal i32 @_wait_nodes_ready(ptr noundef %0) #0 {
  %2 = alloca ptr, align 8
  %3 = alloca double, align 8
  %4 = alloca double, align 8
  %5 = alloca i32, align 4
  %6 = alloca i32, align 4
  %7 = alloca i32, align 4
  %8 = alloca i8, align 1
  store ptr %0, ptr %2, align 8
  call void @llvm.lifetime.start.p0(i64 8, ptr %3) #7
  store double 0.000000e+00, ptr %3, align 8
  call void @llvm.lifetime.start.p0(i64 8, ptr %4) #7
  store double 0.000000e+00, ptr %4, align 8
  call void @llvm.lifetime.start.p0(i64 4, ptr %5) #7
  store i32 0, ptr %5, align 4
  call void @llvm.lifetime.start.p0(i64 4, ptr %6) #7
  store i32 0, ptr %6, align 4
  call void @llvm.lifetime.start.p0(i64 4, ptr %7) #7
  call void @llvm.lifetime.start.p0(i64 1, ptr %8) #7
  store i8 0, ptr %8, align 1
  %9 = load ptr, ptr %2, align 8
  %10 = getelementptr inbounds nuw %struct.resource_allocation_response_msg, ptr %9, i32 0, i32 1
  %11 = load i32, ptr %10, align 8
  store i32 %11, ptr @pending_job_id, align 4
  br label %12

12:                                               ; preds = %104, %86, %1
  br label %13

13:                                               ; preds = %12
  %14 = load i32, ptr %6, align 4
  %15 = icmp ne i32 %14, 0
  br i1 %15, label %16, label %63

16:                                               ; preds = %13
  %17 = load double, ptr %3, align 8
  %18 = fcmp oeq double %17, 0.000000e+00
  br i1 %18, label %19, label %20

19:                                               ; preds = %16
  store double 1.000000e-01, ptr %4, align 8
  br label %28

20:                                               ; preds = %16
  %21 = load double, ptr %4, align 8
  %22 = fcmp olt double %21, 3.000000e+02
  br i1 %22, label %23, label %27

23:                                               ; preds = %20
  %24 = load i32, ptr %6, align 4
  %25 = sitofp i32 %24 to double
  %26 = fmul double 5.000000e-01, %25
  store double %26, ptr %4, align 8
  br label %27

27:                                               ; preds = %23, %20
  br label %28

28:                                               ; preds = %27, %19
  %29 = load i32, ptr %6, align 4
  %30 = icmp eq i32 %29, 1
  br i1 %30, label %31, label %42

31:                                               ; preds = %28
  br label %32

32:                                               ; preds = %31
  br label %33

33:                                               ; preds = %32
  %34 = call i32 @get_log_level()
  %35 = icmp sge i32 %34, 4
  br i1 %35, label %36, label %37

36:                                               ; preds = %33
  call void (i32, ptr, ...) @log_var(i32 noundef 4, ptr noundef @.str.29)
  br label %37

37:                                               ; preds = %36, %33
  br label %38

38:                                               ; preds = %37
  br label %39

39:                                               ; preds = %38
  br label %40

40:                                               ; preds = %39
  br label %41

41:                                               ; preds = %40
  br label %55

42:                                               ; preds = %28
  br label %43

43:                                               ; preds = %42
  br label %44

44:                                               ; preds = %43
  %45 = call i32 @get_log_level()
  %46 = icmp sge i32 %45, 5
  br i1 %46, label %47, label %50

47:                                               ; preds = %44
  %48 = load double, ptr %3, align 8
  %49 = load double, ptr %4, align 8
  call void (i32, ptr, ...) @log_var(i32 noundef 5, ptr noundef @.str.30, double noundef %48, double noundef %49)
  br label %50

50:                                               ; preds = %47, %44
  br label %51

51:                                               ; preds = %50
  br label %52

52:                                               ; preds = %51
  br label %53

53:                                               ; preds = %52
  br label %54

54:                                               ; preds = %53
  br label %55

55:                                               ; preds = %54, %41
  %56 = load double, ptr %4, align 8
  %57 = fmul double 1.000000e+06, %56
  %58 = fptoui double %57 to i32
  %59 = call i32 @usleep(i32 noundef %58)
  %60 = load double, ptr %4, align 8
  %61 = load double, ptr %3, align 8
  %62 = fadd double %61, %60
  store double %62, ptr %3, align 8
  br label %63

63:                                               ; preds = %55, %13
  %64 = load i32, ptr %6, align 4
  %65 = add nsw i32 %64, 1
  store i32 %65, ptr %6, align 4
  %66 = load ptr, ptr %2, align 8
  %67 = getelementptr inbounds nuw %struct.resource_allocation_response_msg, ptr %66, i32 0, i32 1
  %68 = load i32, ptr %67, align 8
  %69 = call i32 @slurm_job_node_ready(i32 noundef %68)
  store i32 %69, ptr %7, align 4
  %70 = load i32, ptr %7, align 4
  %71 = icmp eq i32 %70, -2
  br i1 %71, label %72, label %73

72:                                               ; preds = %63
  br label %105

73:                                               ; preds = %63
  %74 = load i32, ptr @destroy_job, align 4
  %75 = icmp ne i32 %74, 0
  br i1 %75, label %79, label %76

76:                                               ; preds = %73
  %77 = load i8, ptr @revoke_job, align 1, !range !13, !noundef !14
  %78 = trunc i8 %77 to i1
  br i1 %78, label %79, label %80

79:                                               ; preds = %76, %73
  br label %105

80:                                               ; preds = %76
  %81 = load i32, ptr %7, align 4
  %82 = icmp eq i32 %81, -1
  br i1 %82, label %86, label %83

83:                                               ; preds = %80
  %84 = load i32, ptr %7, align 4
  %85 = icmp eq i32 %84, 11
  br i1 %85, label %86, label %87

86:                                               ; preds = %83, %80
  br label %12, !llvm.loop !15

87:                                               ; preds = %83
  %88 = load i32, ptr %7, align 4
  %89 = sext i32 %88 to i64
  %90 = and i64 %89, 2
  %91 = icmp eq i64 %90, 0
  br i1 %91, label %92, label %93

92:                                               ; preds = %87
  store i8 1, ptr %8, align 1
  br label %105

93:                                               ; preds = %87
  %94 = load i32, ptr %7, align 4
  %95 = sext i32 %94 to i64
  %96 = and i64 %95, 1
  %97 = icmp ne i64 %96, 0
  br i1 %97, label %98, label %104

98:                                               ; preds = %93
  %99 = load i32, ptr %7, align 4
  %100 = sext i32 %99 to i64
  %101 = and i64 %100, 4
  %102 = icmp ne i64 %101, 0
  br i1 %102, label %103, label %104

103:                                              ; preds = %98
  store i32 1, ptr %5, align 4
  br label %105

104:                                              ; preds = %98, %93
  br label %12, !llvm.loop !15

105:                                              ; preds = %103, %92, %79, %72
  %106 = load i32, ptr %5, align 4
  %107 = icmp ne i32 %106, 0
  br i1 %107, label %108, label %126

108:                                              ; preds = %105
  %109 = load i32, ptr %6, align 4
  %110 = icmp sgt i32 %109, 0
  br i1 %110, label %111, label %125

111:                                              ; preds = %108
  br label %112

112:                                              ; preds = %111
  br label %113

113:                                              ; preds = %112
  %114 = call i32 @get_log_level()
  %115 = icmp sge i32 %114, 4
  br i1 %115, label %116, label %120

116:                                              ; preds = %113
  %117 = load ptr, ptr %2, align 8
  %118 = getelementptr inbounds nuw %struct.resource_allocation_response_msg, ptr %117, i32 0, i32 15
  %119 = load ptr, ptr %118, align 8
  call void (i32, ptr, ...) @log_var(i32 noundef 4, ptr noundef @.str.31, ptr noundef %119)
  br label %120

120:                                              ; preds = %116, %113
  br label %121

121:                                              ; preds = %120
  br label %122

122:                                              ; preds = %121
  br label %123

123:                                              ; preds = %122
  br label %124

124:                                              ; preds = %123
  br label %125

125:                                              ; preds = %124, %108
  br label %145

126:                                              ; preds = %105
  %127 = load i32, ptr @destroy_job, align 4
  %128 = icmp ne i32 %127, 0
  br i1 %128, label %143, label %129

129:                                              ; preds = %126
  %130 = load i8, ptr %8, align 1, !range !13, !noundef !14
  %131 = trunc i8 %130 to i1
  br i1 %131, label %132, label %137

132:                                              ; preds = %129
  %133 = load ptr, ptr %2, align 8
  %134 = getelementptr inbounds nuw %struct.resource_allocation_response_msg, ptr %133, i32 0, i32 1
  %135 = load i32, ptr %134, align 8
  %136 = call i32 (ptr, ...) @error(ptr noundef @.str.1, i32 noundef %135)
  store i32 1, ptr @destroy_job, align 4
  br label %142

137:                                              ; preds = %129
  %138 = load ptr, ptr %2, align 8
  %139 = getelementptr inbounds nuw %struct.resource_allocation_response_msg, ptr %138, i32 0, i32 15
  %140 = load ptr, ptr %139, align 8
  %141 = call i32 (ptr, ...) @error(ptr noundef @.str.32, ptr noundef %140)
  br label %142

142:                                              ; preds = %137, %132
  br label %144

143:                                              ; preds = %126
  store i32 0, ptr %5, align 4
  br label %144

144:                                              ; preds = %143, %142
  br label %145

145:                                              ; preds = %144, %125
  store i32 0, ptr @pending_job_id, align 4
  %146 = load i32, ptr %5, align 4
  call void @llvm.lifetime.end.p0(i64 1, ptr %8) #7
  call void @llvm.lifetime.end.p0(i64 4, ptr %7) #7
  call void @llvm.lifetime.end.p0(i64 4, ptr %6) #7
  call void @llvm.lifetime.end.p0(i64 4, ptr %5) #7
  call void @llvm.lifetime.end.p0(i64 8, ptr %4) #7
  call void @llvm.lifetime.end.p0(i64 8, ptr %3) #7
  ret i32 %146
}