; Function Attrs: nounwind uwtable
define internal fastcc range(i32 0, 2) i32 @_wait_nodes_ready(ptr noundef nonnull readonly captures(none) %0) unnamed_addr #0 {
  %2 = getelementptr inbounds nuw i8, ptr %0, i64 8
  %3 = load i32, ptr %2, align 8
  store i32 %3, ptr @pending_job_id, align 4
  br label %.backedge

.backedge:                                        ; preds = %.backedge.backedge, %1
  %.032 = phi double [ 0.000000e+00, %1 ], [ %.133, %.backedge.backedge ]
  %.029 = phi i32 [ 0, %1 ], [ %26, %.backedge.backedge ]
  %.028 = phi double [ 0.000000e+00, %1 ], [ %.1, %.backedge.backedge ]
  %.not = icmp eq i32 %.029, 0
  br i1 %.not, label %25, label %4

4:                                                ; preds = %.backedge
  %5 = fcmp oeq double %.028, 0.000000e+00
  br i1 %5, label %11, label %6

6:                                                ; preds = %4
  %7 = fcmp olt double %.032, 3.000000e+02
  br i1 %7, label %8, label %11

8:                                                ; preds = %6
  %9 = uitofp nneg i32 %.029 to double
  %10 = fmul double %9, 5.000000e-01
  br label %11

11:                                               ; preds = %4, %6, %8
  %.2 = phi double [ %10, %8 ], [ %.032, %6 ], [ 1.000000e-01, %4 ]
  %12 = icmp eq i32 %.029, 1
  %13 = tail call i32 @get_log_level() #9
  br i1 %12, label %14, label %17

14:                                               ; preds = %11
  %15 = icmp sgt i32 %13, 3
  br i1 %15, label %16, label %20

16:                                               ; preds = %14
  tail call void (i32, ptr, ...) @log_var(i32 noundef 4, ptr noundef nonnull @.str.29) #9
  br label %20

17:                                               ; preds = %11
  %18 = icmp sgt i32 %13, 4
  br i1 %18, label %19, label %20

19:                                               ; preds = %17
  tail call void (i32, ptr, ...) @log_var(i32 noundef 5, ptr noundef nonnull @.str.30, double noundef %.028, double noundef %.2) #9
  br label %20

20:                                               ; preds = %17, %19, %14, %16
  %21 = fmul double %.2, 1.000000e+06
  %22 = fptoui double %21 to i32
  %23 = tail call i32 @usleep(i32 noundef %22) #9
  %24 = fadd double %.028, %.2
  br label %25

25:                                               ; preds = %20, %.backedge
  %.133 = phi double [ %.2, %20 ], [ %.032, %.backedge ]
  %.1 = phi double [ %24, %20 ], [ %.028, %.backedge ]
  %26 = add nuw nsw i32 %.029, 1
  %27 = load i32, ptr %2, align 8
  %28 = tail call i32 @slurm_job_node_ready(i32 noundef %27) #9
  %29 = icmp eq i32 %28, -2
  %30 = load i32, ptr @destroy_job, align 4
  %31 = icmp ne i32 %30, 0
  %or.cond3 = select i1 %29, i1 true, i1 %31
  br i1 %or.cond3, label %45, label %32

32:                                               ; preds = %25
  %.b35 = load i1, ptr @revoke_job, align 1
  br i1 %.b35, label %.thread48, label %33

33:                                               ; preds = %32
  switch i32 %28, label %34 [
    i32 -1, label %.backedge.backedge
    i32 11, label %.backedge.backedge
  ]

.backedge.backedge:                               ; preds = %33, %33, %37
  br label %.backedge, !llvm.loop !12

34:                                               ; preds = %33
  %35 = and i32 %28, 2
  %36 = icmp eq i32 %35, 0
  br i1 %36, label %46, label %37

37:                                               ; preds = %34
  %38 = and i32 %28, 5
  %or.cond.not = icmp eq i32 %38, 5
  br i1 %or.cond.not, label %39, label %.backedge.backedge

39:                                               ; preds = %37
  %40 = tail call i32 @get_log_level() #9
  %41 = icmp sgt i32 %40, 3
  br i1 %41, label %42, label %52

42:                                               ; preds = %39
  %43 = getelementptr inbounds nuw i8, ptr %0, i64 104
  %44 = load ptr, ptr %43, align 8
  tail call void (i32, ptr, ...) @log_var(i32 noundef 4, ptr noundef nonnull @.str.31, ptr noundef %44) #9
  br label %52

45:                                               ; preds = %25
  %.not39 = icmp eq i32 %30, 0
  br i1 %.not39, label %.thread48, label %52

46:                                               ; preds = %34
  %47 = load i32, ptr %2, align 8
  %48 = tail call i32 (ptr, ...) @error(ptr noundef nonnull @.str.1, i32 noundef %47) #9
  store i32 1, ptr @destroy_job, align 4
  br label %52

.thread48:                                        ; preds = %32, %45
  %49 = getelementptr inbounds nuw i8, ptr %0, i64 104
  %50 = load ptr, ptr %49, align 8
  %51 = tail call i32 (ptr, ...) @error(ptr noundef nonnull @.str.32, ptr noundef %50) #9
  br label %52

52:                                               ; preds = %45, %.thread48, %46, %42, %39
  %.131 = phi i32 [ 1, %42 ], [ 1, %39 ], [ 0, %46 ], [ 0, %.thread48 ], [ 0, %45 ]
  store i32 0, ptr @pending_job_id, align 4
  ret i32 %.131
}